; Function Attrs: mustprogress nounwind uwtable
define void @_ZN12vector_csr_t9write_rawEm(ptr noundef nonnull align 8 dereferenceable(56) initializes((40, 48)) %0, i64 noundef %1) local_unnamed_addr #7 align 2 personality ptr @__gxx_personality_v0 {
  %3 = alloca i64, align 8
  %4 = getelementptr inbounds nuw i8, ptr %0, i64 40
  store i64 %1, ptr %4, align 8, !tbaa !159
  %5 = getelementptr inbounds nuw i8, ptr %0, i64 24
  %6 = load i64, ptr %5, align 8, !tbaa !16
  %7 = load ptr, ptr %0, align 8, !tbaa !3
  %8 = getelementptr inbounds nuw i8, ptr %7, i64 40
  %9 = load ptr, ptr %8, align 8
  %10 = tail call noundef i64 %9(ptr noundef nonnull align 8 dereferenceable(37) %0) #30
  %11 = getelementptr inbounds nuw i8, ptr %0, i64 8
  %12 = load ptr, ptr %11, align 8, !tbaa !6
  %13 = getelementptr inbounds nuw i8, ptr %12, i64 3969
  %14 = load i8, ptr %13, align 1, !tbaa !102, !range !94, !noundef !95
  %15 = trunc nuw i8 %14 to i1
  br i1 %15, label %16, label %_ZNK5csr_t9log_writeEv.exit

16:                                               ; preds = %2
  %17 = getelementptr inbounds nuw i8, ptr %12, i64 3840
  call void @llvm.lifetime.start.p0(i64 8, ptr nonnull %3) #30
  %18 = shl i64 %6, 4
  %19 = or disjoint i64 %18, 4
  store i64 %19, ptr %3, align 8, !tbaa !96
  %20 = invoke noundef nonnull align 8 dereferenceable(16) ptr @_ZNSt3mapIm10float128_tSt4lessImESaISt4pairIKmS0_EEEixEOm(ptr noundef nonnull align 8 dereferenceable(48) %17, ptr noundef nonnull align 8 dereferenceable(8) %3)
          to label %21 unwind label %22

21:                                               ; preds = %16
  store i64 %10, ptr %20, align 8
  %.sroa.4.0..sroa_idx.i.i = getelementptr inbounds nuw i8, ptr %20, i64 8
  store i64 0, ptr %.sroa.4.0..sroa_idx.i.i, align 8, !tbaa !150
  call void @llvm.lifetime.end.p0(i64 8, ptr nonnull %3) #30
  br label %_ZNK5csr_t9log_writeEv.exit

22:                                               ; preds = %16
  %23 = landingpad { ptr, i32 }
          catch ptr null
  %24 = extractvalue { ptr, i32 } %23, 0
  call void @__clang_call_terminate(ptr %24) #32
  unreachable

_ZNK5csr_t9log_writeEv.exit:                      ; preds = %2, %21
  ret void
}